; Function Attrs: mustprogress nofree norecurse nosync nounwind willreturn memory(read, argmem: readwrite, inaccessiblemem: none) uwtable
define internal range(i32 0, 3) i32 @fold_fload_str_len_kgc(ptr noundef captures(none) %0) #8 {
  %2 = getelementptr inbounds nuw i8, ptr %0, i64 168
  %3 = load i32, ptr %2, align 8, !tbaa !4
  %4 = and i32 %3, 65536
  %.not = icmp eq i32 %4, 0
  br i1 %.not, label %12, label %5, !prof !33

5:                                                ; preds = %1
  %6 = getelementptr inbounds nuw i8, ptr %0, i64 184
  %7 = getelementptr inbounds nuw i8, ptr %0, i64 200
  %8 = load i64, ptr %7, align 8, !tbaa !28
  %9 = inttoptr i64 %8 to ptr
  %10 = getelementptr inbounds nuw i8, ptr %9, i64 20
  %11 = load i32, ptr %10, align 4, !tbaa !28
  store i32 %11, ptr %6, align 8, !tbaa !28
  br label %12

12:                                               ; preds = %1, %5
  %.0 = phi i32 [ 2, %5 ], [ 0, %1 ]
  ret i32 %.0
}